target datalayout = "e-m:e-p270:32:32-p271:32:32-p272:64:64-i64:64-i128:128-f80:128-n8:16:32:64-S128"
target triple = "x86_64-pc-linux-gnu"

%struct.node_record = type { ptr, ptr, i16, i64, i64, ptr, ptr, ptr, i16, ptr, i16, i16, i32, i32, i64, ptr, i16, i16, ptr, ptr, ptr, ptr, ptr, i64, i64, ptr, ptr, ptr, ptr, i32, ptr, ptr, i64, i64, i32, ptr, i64, ptr, i32, i16, ptr, ptr, i32, ptr, i32, i8, ptr, i32, i16, i16, ptr, i16, i64, i16, i64, ptr, i64, i32, i16, i64, i16, ptr, i16, i64, ptr, i64, i16, i32, i16, ptr, ptr, ptr, i16, i32, i16, i16, i32, ptr, i16, i32 }

@.str.129 = private unnamed_addr constant [34 x i8] c"Still waiting for boot of node %s\00", align 1

; Function Attrs: nounwind uwtable
define dso_local zeroext i1 @waiting_for_node_boot(ptr noundef %0) #0 {
  %2 = alloca i1, align 1
  %3 = alloca ptr, align 8
  store ptr %0, ptr %3, align 8
  %4 = load ptr, ptr %3, align 8
  %5 = getelementptr inbounds nuw %struct.node_record, ptr %4, i32 0, i32 44
  %6 = load i32, ptr %5, align 8
  %7 = zext i32 %6 to i64
  %8 = and i64 %7, 16384
  %9 = icmp ne i64 %8, 0
  br i1 %9, label %17, label %10

10:                                               ; preds = %1
  %11 = load ptr, ptr %3, align 8
  %12 = getelementptr inbounds nuw %struct.node_record, ptr %11, i32 0, i32 44
  %13 = load i32, ptr %12, align 8
  %14 = zext i32 %13 to i64
  %15 = and i64 %14, 1048576
  %16 = icmp ne i64 %15, 0
  br i1 %16, label %17, label %37

17:                                               ; preds = %10, %1
  %18 = load ptr, ptr %3, align 8
  %19 = getelementptr inbounds nuw %struct.node_record, ptr %18, i32 0, i32 4
  %20 = load i64, ptr %19, align 8
  %21 = load ptr, ptr %3, align 8
  %22 = getelementptr inbounds nuw %struct.node_record, ptr %21, i32 0, i32 3
  %23 = load i64, ptr %22, align 8
  %24 = icmp slt i64 %20, %23
  br i1 %24, label %25, label %37

25:                                               ; preds = %17
  br label %26

26:                                               ; preds = %25
  br label %27

27:                                               ; preds = %26
  %28 = call i32 @get_log_level()
  %29 = icmp sge i32 %28, 5
  br i1 %29, label %30, label %34

30:                                               ; preds = %27
  %31 = load ptr, ptr %3, align 8
  %32 = getelementptr inbounds nuw %struct.node_record, ptr %31, i32 0, i32 37
  %33 = load ptr, ptr %32, align 8
  call void (i32, ptr, ...) @log_var(i32 noundef 5, ptr noundef @.str.129, ptr noundef %33)
  br label %34

34:                                               ; preds = %30, %27
  br label %35

35:                                               ; preds = %34
  br label %36

36:                                               ; preds = %35
  store i1 true, ptr %2, align 1
  br label %38

37:                                               ; preds = %17, %10
  store i1 false, ptr %2, align 1
  br label %38

38:                                               ; preds = %37, %36
  %39 = load i1, ptr %2, align 1
  ret i1 %39
}