; Function Attrs: nounwind uwtable
define dso_local noundef zeroext i1 @waiting_for_node_boot(ptr noundef readonly captures(none) %0) local_unnamed_addr #0 {
  %2 = getelementptr inbounds nuw i8, ptr %0, i64 320
  %3 = load i32, ptr %2, align 8
  %4 = and i32 %3, 1064960
  %or.cond = icmp eq i32 %4, 0
  br i1 %or.cond, label %17, label %5

5:                                                ; preds = %1
  %6 = getelementptr inbounds nuw i8, ptr %0, i64 32
  %7 = load i64, ptr %6, align 8
  %8 = getelementptr inbounds nuw i8, ptr %0, i64 24
  %9 = load i64, ptr %8, align 8
  %10 = icmp slt i64 %7, %9
  br i1 %10, label %11, label %17

11:                                               ; preds = %5
  %12 = tail call i32 @get_log_level() #15
  %13 = icmp sgt i32 %12, 4
  br i1 %13, label %14, label %17

14:                                               ; preds = %11
  %15 = getelementptr inbounds nuw i8, ptr %0, i64 272
  %16 = load ptr, ptr %15, align 8
  tail call void (i32, ptr, ...) @log_var(i32 noundef 5, ptr noundef nonnull @.str.129, ptr noundef %16) #15
  br label %17

17:                                               ; preds = %5, %1, %11, %14
  %.0 = phi i1 [ true, %14 ], [ true, %11 ], [ false, %1 ], [ false, %5 ]
  ret i1 %.0
}